target datalayout = "e-m:e-p270:32:32-p271:32:32-p272:64:64-i64:64-i128:128-f80:128-n8:16:32:64-S128"
target triple = "x86_64-pc-linux-gnu"

%struct.rb_process_status = type { i32, i32, i32 }

; Function Attrs: nounwind sspstrong uwtable
define internal i32 @handle_fork_error(i32 noundef %0, ptr noundef %1, ptr noundef %2, ptr noundef %3) #0 {
  %5 = alloca i32, align 4
  %6 = alloca i32, align 4
  %7 = alloca ptr, align 8
  %8 = alloca ptr, align 8
  %9 = alloca ptr, align 8
  %10 = alloca i32, align 4
  %11 = alloca i32, align 4
  store i32 %0, ptr %6, align 4, !tbaa !34
  store ptr %1, ptr %7, align 8, !tbaa !36
  store ptr %2, ptr %8, align 8, !tbaa !60
  store ptr %3, ptr %9, align 8, !tbaa !60
  call void @llvm.lifetime.start.p0(i64 4, ptr %10) #27
  store i32 0, ptr %10, align 4, !tbaa !34
  %12 = load i32, ptr %6, align 4, !tbaa !34
  switch i32 %12, label %44 [
    i32 12, label %13
    i32 11, label %23
  ]

13:                                               ; preds = %4
  %14 = load ptr, ptr %9, align 8, !tbaa !60
  %15 = load volatile i32, ptr %14, align 4, !tbaa !34
  %16 = add i32 %15, -1
  store volatile i32 %16, ptr %14, align 4, !tbaa !34
  %17 = icmp sgt i32 %15, 0
  br i1 %17, label %18, label %22

18:                                               ; preds = %13
  %19 = call i32 @rb_during_gc() #29
  %20 = icmp ne i32 %19, 0
  br i1 %20, label %22, label %21

21:                                               ; preds = %18
  call void @rb_gc()
  store i32 0, ptr %5, align 4
  store i32 1, ptr %11, align 4
  br label %67

22:                                               ; preds = %18, %13
  br label %44

23:                                               ; preds = %4
  %24 = load ptr, ptr %7, align 8, !tbaa !36
  %25 = icmp ne ptr %24, null
  br i1 %25, label %30, label %26

26:                                               ; preds = %23
  %27 = load ptr, ptr %8, align 8, !tbaa !60
  %28 = icmp ne ptr %27, null
  br i1 %28, label %30, label %29

29:                                               ; preds = %26
  call void @rb_thread_sleep(i32 noundef 1)
  store i32 0, ptr %5, align 4
  store i32 1, ptr %11, align 4
  br label %67

30:                                               ; preds = %26, %23
  %31 = call i64 @rb_protect(ptr noundef @rb_thread_sleep_that_takes_VALUE_as_sole_argument, i64 noundef 3, ptr noundef %10)
  %32 = load ptr, ptr %7, align 8, !tbaa !36
  %33 = icmp ne ptr %32, null
  br i1 %33, label %34, label %38

34:                                               ; preds = %30
  %35 = load i32, ptr %10, align 4, !tbaa !34
  %36 = load ptr, ptr %7, align 8, !tbaa !36
  %37 = getelementptr inbounds nuw %struct.rb_process_status, ptr %36, i32 0, i32 1
  store i32 %35, ptr %37, align 4, !tbaa !40
  br label %38

38:                                               ; preds = %34, %30
  %39 = load i32, ptr %10, align 4, !tbaa !34
  %40 = icmp ne i32 %39, 0
  br i1 %40, label %42, label %41

41:                                               ; preds = %38
  store i32 0, ptr %5, align 4
  store i32 1, ptr %11, align 4
  br label %67

42:                                               ; preds = %38
  br label %43

43:                                               ; preds = %42
  br label %44

44:                                               ; preds = %4, %43, %22
  %45 = load ptr, ptr %8, align 8, !tbaa !60
  %46 = icmp ne ptr %45, null
  br i1 %46, label %47, label %58

47:                                               ; preds = %44
  %48 = load ptr, ptr %8, align 8, !tbaa !60
  %49 = getelementptr i32, ptr %48, i64 0
  %50 = load i32, ptr %49, align 4, !tbaa !34
  %51 = call i32 @close(i32 noundef %50)
  %52 = load ptr, ptr %8, align 8, !tbaa !60
  %53 = getelementptr i32, ptr %52, i64 1
  %54 = load i32, ptr %53, align 4, !tbaa !34
  %55 = call i32 @close(i32 noundef %54)
  %56 = load i32, ptr %6, align 4, !tbaa !34
  %57 = call ptr @rb_errno_ptr()
  store i32 %56, ptr %57, align 4, !tbaa !34
  br label %58

58:                                               ; preds = %47, %44
  %59 = load i32, ptr %10, align 4, !tbaa !34
  %60 = icmp ne i32 %59, 0
  br i1 %60, label %61, label %66

61:                                               ; preds = %58
  %62 = load ptr, ptr %7, align 8, !tbaa !36
  %63 = icmp ne ptr %62, null
  br i1 %63, label %66, label %64

64:                                               ; preds = %61
  %65 = load i32, ptr %10, align 4, !tbaa !34
  call void @rb_jump_tag(i32 noundef %65) #30
  unreachable

66:                                               ; preds = %61, %58
  store i32 -1, ptr %5, align 4
  store i32 1, ptr %11, align 4
  br label %67

67:                                               ; preds = %66, %41, %29, %21
  call void @llvm.lifetime.end.p0(i64 4, ptr %10) #27
  %68 = load i32, ptr %5, align 4
  ret i32 %68
}