; Function Attrs: nounwind sspstrong uwtable
define internal fastcc range(i32 -1, 1) i32 @handle_fork_error(i32 noundef %0, ptr noundef writeonly captures(address_is_null) %1, ptr noundef readonly captures(address_is_null) %2, ptr noundef nonnull %3) unnamed_addr #1 {
  %5 = alloca i32, align 4
  call void @llvm.lifetime.start.p0(i64 4, ptr nonnull %5) #27
  store i32 0, ptr %5, align 4, !tbaa !60
  switch i32 %0, label %22 [
    i32 12, label %6
    i32 11, label %13
  ]

6:                                                ; preds = %4
  %7 = load volatile i32, ptr %3, align 4, !tbaa !60
  %8 = add i32 %7, -1
  store volatile i32 %8, ptr %3, align 4, !tbaa !60
  %9 = icmp sgt i32 %7, 0
  br i1 %9, label %10, label %22

10:                                               ; preds = %6
  %11 = tail call i32 @rb_during_gc() #28
  %.not17 = icmp eq i32 %11, 0
  br i1 %.not17, label %12, label %22

12:                                               ; preds = %10
  tail call void @rb_gc() #27
  br label %36

13:                                               ; preds = %4
  %14 = icmp ne ptr %1, null
  %15 = icmp ne ptr %2, null
  %or.cond = or i1 %14, %15
  br i1 %or.cond, label %17, label %16

16:                                               ; preds = %13
  tail call void @rb_thread_sleep(i32 noundef 1) #27
  br label %36

17:                                               ; preds = %13
  %18 = call i64 @rb_protect(ptr noundef nonnull @rb_thread_sleep_that_takes_VALUE_as_sole_argument, i64 noundef 3, ptr noundef nonnull %5) #27
  %19 = load i32, ptr %5, align 4, !tbaa !60
  br i1 %14, label %20, label %thread-pre-split

20:                                               ; preds = %17
  %21 = getelementptr inbounds nuw i8, ptr %1, i64 4
  store i32 %19, ptr %21, align 4, !tbaa !51
  br label %thread-pre-split

thread-pre-split:                                 ; preds = %17, %20
  %.not = icmp eq i32 %19, 0
  br i1 %.not, label %36, label %22

22:                                               ; preds = %thread-pre-split, %6, %10, %4
  %23 = phi i32 [ %19, %thread-pre-split ], [ 0, %6 ], [ 0, %10 ], [ 0, %4 ]
  %.not18 = icmp eq ptr %2, null
  br i1 %.not18, label %31, label %24

24:                                               ; preds = %22
  %25 = load i32, ptr %2, align 4, !tbaa !60
  %26 = call i32 @close(i32 noundef %25) #27
  %27 = getelementptr i8, ptr %2, i64 4
  %28 = load i32, ptr %27, align 4, !tbaa !60
  %29 = call i32 @close(i32 noundef %28) #27
  %30 = call ptr @rb_errno_ptr() #27
  store i32 %0, ptr %30, align 4, !tbaa !60
  %.pre = load i32, ptr %5, align 4, !tbaa !60
  br label %31

31:                                               ; preds = %24, %22
  %32 = phi i32 [ %.pre, %24 ], [ %23, %22 ]
  %33 = icmp eq i32 %32, 0
  %34 = icmp ne ptr %1, null
  %or.cond3 = or i1 %34, %33
  br i1 %or.cond3, label %36, label %35

35:                                               ; preds = %31
  call void @rb_jump_tag(i32 noundef %32) #29
  unreachable

36:                                               ; preds = %31, %thread-pre-split, %16, %12
  %.0 = phi i32 [ 0, %16 ], [ 0, %12 ], [ 0, %thread-pre-split ], [ -1, %31 ]
  call void @llvm.lifetime.end.p0(i64 4, ptr nonnull %5) #27
  ret i32 %.0
}